target datalayout = "e-m:e-p270:32:32-p271:32:32-p272:64:64-i64:64-i128:128-f80:128-n8:16:32:64-S128"
target triple = "x86_64-pc-linux-gnu"

%struct.pmix_object_t = type { %union.pthread_mutex_t, ptr, i32, %struct.pmix_tma }
%struct.pmix_tma = type { ptr, ptr, ptr, ptr, ptr, ptr, ptr, ptr }
%union.pthread_mutex_t = type { %struct.__pthread_mutex_s }
%struct.__pthread_mutex_s = type { i32, i32, i32, i32, i32, i16, i16, %struct.__pthread_internal_list }
%struct.__pthread_internal_list = type { ptr, ptr }
%struct.pmix_client_globals_t = type { ptr, i8, %struct.pmix_list_t, %struct.pmix_pointer_array_t, %struct.pmix_list_t, i32, i32, i32, i32, i32, i32, i32, i32, i32, i32, i32, i32, i32, i32, i32, i32, %struct.pmix_iof_sink_t, %struct.pmix_iof_sink_t, i32, i32 }
%struct.pmix_pointer_array_t = type { %struct.pmix_object_t, i32, i32, i32, i32, i32, ptr, ptr }
%struct.pmix_list_t = type { %struct.pmix_object_t, %struct.pmix_list_item_t, i64 }
%struct.pmix_list_item_t = type { %struct.pmix_object_t, ptr, ptr, i32 }
%struct.pmix_iof_sink_t = type { %struct.pmix_list_item_t, %struct.pmix_proc, i16, %struct.pmix_iof_write_event_t, i8, i8, i8 }
%struct.pmix_proc = type { [256 x i8], i32 }
%struct.pmix_iof_write_event_t = type { %struct.pmix_list_item_t, i8, i8, i32, ptr, %struct.timeval, i32, %struct.pmix_list_t }
%struct.timeval = type { i64, i64 }
%struct.pmix_output_desc_t = type { i8, i8, i32, i8, i32, ptr, ptr, i32, ptr, i32, i8, i8, i8, i8, ptr, i32, i32 }
%struct.pmix_globals_t = type { i32, %struct.pmix_proc, %struct.pmix_value, %struct.pmix_value, ptr, i32, i32, ptr, i32, i32, i32, i32, i32, ptr, ptr, i32, %struct.pmix_events_t, i8, i8, %struct.timeval, %struct.pmix_list_t, %struct.pmix_pointer_array_t, i32, i32, %struct.pmix_hotel_t, i8, %struct.pmix_list_t, i8, i8, i8, i64, %struct.pmix_list_t, %struct.pmix_topology_t, %struct.pmix_cpuset_t, i8, i8, %struct.pmix_iof_flags_t, %struct.pmix_keyindex_t }
%struct.pmix_value = type { i16, %union.anon }
%union.anon = type { %struct.pmix_envar_t }
%struct.pmix_envar_t = type { ptr, ptr, i8 }
%struct.pmix_events_t = type { %struct.pmix_object_t, i64, ptr, ptr, %struct.pmix_list_t, %struct.pmix_list_t, %struct.pmix_list_t, %struct.pmix_list_t }
%struct.pmix_hotel_t = type { %struct.pmix_object_t, i32, ptr, %struct.timeval, ptr, ptr, ptr, ptr, i32 }
%struct.pmix_topology_t = type { ptr, ptr }
%struct.pmix_cpuset_t = type { ptr, ptr }
%struct.pmix_iof_flags_t = type { i8, i8, i8, i8, i8, i8, i8, ptr, ptr, i8, i8, i8, i8, i8, i8 }
%struct.pmix_keyindex_t = type { %struct.pmix_object_t, ptr, i32 }
%struct.pmix_class_t = type { ptr, ptr, ptr, ptr, i32, i32, ptr, ptr, i64 }

@pmix_client_globals = external global %struct.pmix_client_globals_t, align 8
@pmix_output_info = external global [0 x %struct.pmix_output_desc_t], align 8
@pmix_globals = external global %struct.pmix_globals_t, align 8
@.str.41 = private unnamed_addr constant [21 x i8] c"pthread_mutex_lock()\00", align 1
@.str.84 = private unnamed_addr constant [38 x i8] c"%s iof: closing fd %d for write event\00", align 1

; Function Attrs: inlinehint nounwind uwtable
define internal void @pmix_tma_free(ptr noundef %0, ptr noundef %1) #2 {
  %3 = alloca ptr, align 8
  %4 = alloca ptr, align 8
  store ptr %0, ptr %3, align 8, !tbaa !111
  store ptr %1, ptr %4, align 8, !tbaa !14
  %5 = load ptr, ptr %3, align 8, !tbaa !111
  %6 = icmp ne ptr null, %5
  br i1 %6, label %7, label %13

7:                                                ; preds = %2
  %8 = load ptr, ptr %3, align 8, !tbaa !111
  %9 = getelementptr inbounds nuw %struct.pmix_tma, ptr %8, i32 0, i32 5
  %10 = load ptr, ptr %9, align 8, !tbaa !150
  %11 = load ptr, ptr %3, align 8, !tbaa !111
  %12 = load ptr, ptr %4, align 8, !tbaa !14
  call void %10(ptr noundef %11, ptr noundef %12)
  br label %15

13:                                               ; preds = %2
  %14 = load ptr, ptr %4, align 8, !tbaa !14
  call void @free(ptr noundef %14) #13
  br label %15

15:                                               ; preds = %13, %7
  ret void
}

; Function Attrs: inlinehint nounwind uwtable
define internal void @pmix_obj_run_destructors(ptr noundef %0) #2 {
  %2 = alloca ptr, align 8
  %3 = alloca ptr, align 8
  store ptr %0, ptr %2, align 8, !tbaa !84
  call void @llvm.lifetime.start.p0(i64 8, ptr %3) #13
  %4 = load ptr, ptr %2, align 8, !tbaa !84
  %5 = getelementptr inbounds nuw %struct.pmix_object_t, ptr %4, i32 0, i32 1
  %6 = load ptr, ptr %5, align 8, !tbaa !116
  %7 = getelementptr inbounds nuw %struct.pmix_class_t, ptr %6, i32 0, i32 7
  %8 = load ptr, ptr %7, align 8, !tbaa !148
  store ptr %8, ptr %3, align 8, !tbaa !14
  br label %9

9:                                                ; preds = %13, %1
  %10 = load ptr, ptr %3, align 8, !tbaa !14
  %11 = load ptr, ptr %10, align 8, !tbaa !14
  %12 = icmp ne ptr null, %11
  br i1 %12, label %13, label %19

13:                                               ; preds = %9
  %14 = load ptr, ptr %3, align 8, !tbaa !14
  %15 = load ptr, ptr %14, align 8, !tbaa !14
  %16 = load ptr, ptr %2, align 8, !tbaa !84
  call void %15(ptr noundef %16)
  %17 = load ptr, ptr %3, align 8, !tbaa !14
  %18 = getelementptr inbounds nuw ptr, ptr %17, i32 1
  store ptr %18, ptr %3, align 8, !tbaa !14
  br label %9, !llvm.loop !149

19:                                               ; preds = %9
  call void @llvm.lifetime.end.p0(i64 8, ptr %3) #13
  ret void
}

; Function Attrs: alwaysinline nounwind uwtable
define internal i32 @pmix_obj_update(ptr noundef %0, i32 noundef %1) #5 {
  %3 = alloca ptr, align 8
  %4 = alloca i32, align 4
  %5 = alloca i32, align 4
  store ptr %0, ptr %3, align 8, !tbaa !84
  store i32 %1, ptr %4, align 4, !tbaa !81
  call void @llvm.lifetime.start.p0(i64 4, ptr %5) #13
  %6 = load ptr, ptr %3, align 8, !tbaa !84
  %7 = getelementptr inbounds nuw %struct.pmix_object_t, ptr %6, i32 0, i32 0
  %8 = call i32 @pthread_mutex_lock(ptr noundef %7) #13
  store i32 %8, ptr %5, align 4, !tbaa !81
  %9 = load i32, ptr %5, align 4, !tbaa !81
  %10 = icmp eq i32 %9, 35
  br i1 %10, label %11, label %14

11:                                               ; preds = %2
  %12 = load i32, ptr %5, align 4, !tbaa !81
  %13 = call ptr @__errno_location() #14
  store i32 %12, ptr %13, align 4, !tbaa !81
  call void @perror(ptr noundef @.str.41)
  call void @abort() #15
  unreachable

14:                                               ; preds = %2
  %15 = load i32, ptr %4, align 4, !tbaa !81
  %16 = load ptr, ptr %3, align 8, !tbaa !84
  %17 = getelementptr inbounds nuw %struct.pmix_object_t, ptr %16, i32 0, i32 2
  %18 = load i32, ptr %17, align 8, !tbaa !117
  %19 = add nsw i32 %18, %15
  store i32 %19, ptr %17, align 8, !tbaa !117
  store i32 %19, ptr %5, align 4, !tbaa !81
  %20 = load ptr, ptr %3, align 8, !tbaa !84
  %21 = getelementptr inbounds nuw %struct.pmix_object_t, ptr %20, i32 0, i32 0
  %22 = call i32 @pthread_mutex_unlock(ptr noundef %21) #13
  %23 = load i32, ptr %5, align 4, !tbaa !81
  call void @llvm.lifetime.end.p0(i64 4, ptr %5) #13
  ret i32 %23
}

; Function Attrs: inlinehint nounwind uwtable
define internal ptr @pmix_list_remove_first(ptr noundef %0) #2 {
  %2 = alloca ptr, align 8
  %3 = alloca ptr, align 8
  %4 = alloca ptr, align 8
  %5 = alloca i32, align 4
  store ptr %0, ptr %3, align 8, !tbaa !292
  call void @llvm.lifetime.start.p0(i64 8, ptr %4) #13
  %6 = load ptr, ptr %3, align 8, !tbaa !292
  %7 = getelementptr inbounds nuw %struct.pmix_list_t, ptr %6, i32 0, i32 2
  %8 = load volatile i64, ptr %7, align 8, !tbaa !296
  %9 = icmp eq i64 0, %8
  br i1 %9, label %10, label %11

10:                                               ; preds = %1
  store ptr null, ptr %2, align 8
  store i32 1, ptr %5, align 4
  br label %34

11:                                               ; preds = %1
  %12 = load ptr, ptr %3, align 8, !tbaa !292
  %13 = getelementptr inbounds nuw %struct.pmix_list_t, ptr %12, i32 0, i32 2
  %14 = load volatile i64, ptr %13, align 8, !tbaa !296
  %15 = add i64 %14, -1
  store volatile i64 %15, ptr %13, align 8, !tbaa !296
  %16 = load ptr, ptr %3, align 8, !tbaa !292
  %17 = getelementptr inbounds nuw %struct.pmix_list_t, ptr %16, i32 0, i32 1
  %18 = getelementptr inbounds nuw %struct.pmix_list_item_t, ptr %17, i32 0, i32 1
  %19 = load ptr, ptr %18, align 8, !tbaa !299
  store ptr %19, ptr %4, align 8, !tbaa !294
  %20 = load ptr, ptr %4, align 8, !tbaa !294
  %21 = getelementptr inbounds nuw %struct.pmix_list_item_t, ptr %20, i32 0, i32 2
  %22 = load volatile ptr, ptr %21, align 8, !tbaa !295
  %23 = load ptr, ptr %4, align 8, !tbaa !294
  %24 = getelementptr inbounds nuw %struct.pmix_list_item_t, ptr %23, i32 0, i32 1
  %25 = load volatile ptr, ptr %24, align 8, !tbaa !128
  %26 = getelementptr inbounds nuw %struct.pmix_list_item_t, ptr %25, i32 0, i32 2
  store volatile ptr %22, ptr %26, align 8, !tbaa !295
  %27 = load ptr, ptr %4, align 8, !tbaa !294
  %28 = getelementptr inbounds nuw %struct.pmix_list_item_t, ptr %27, i32 0, i32 1
  %29 = load volatile ptr, ptr %28, align 8, !tbaa !128
  %30 = load ptr, ptr %3, align 8, !tbaa !292
  %31 = getelementptr inbounds nuw %struct.pmix_list_t, ptr %30, i32 0, i32 1
  %32 = getelementptr inbounds nuw %struct.pmix_list_item_t, ptr %31, i32 0, i32 1
  store ptr %29, ptr %32, align 8, !tbaa !299
  %33 = load ptr, ptr %4, align 8, !tbaa !294
  store ptr %33, ptr %2, align 8
  store i32 1, ptr %5, align 4
  br label %34

34:                                               ; preds = %11, %10
  call void @llvm.lifetime.end.p0(i64 8, ptr %4) #13
  %35 = load ptr, ptr %2, align 8
  ret ptr %35
}

; Function Attrs: nounwind uwtable
define internal void @iof_write_event_destruct(ptr noundef %0) #0 {
  %2 = alloca ptr, align 8
  %3 = alloca ptr, align 8
  %4 = alloca ptr, align 8
  store ptr %0, ptr %2, align 8, !tbaa !14
  %5 = load ptr, ptr %2, align 8, !tbaa !14
  %6 = getelementptr inbounds nuw %struct.pmix_iof_write_event_t, ptr %5, i32 0, i32 1
  %7 = load i8, ptr %6, align 8, !tbaa !289, !range !24, !noundef !25
  %8 = trunc i8 %7 to i1
  br i1 %8, label %9, label %14

9:                                                ; preds = %1
  %10 = load ptr, ptr %2, align 8, !tbaa !14
  %11 = getelementptr inbounds nuw %struct.pmix_iof_write_event_t, ptr %10, i32 0, i32 4
  %12 = load ptr, ptr %11, align 8, !tbaa !291
  %13 = call i32 @event_del(ptr noundef %12)
  br label %14

14:                                               ; preds = %9, %1
  %15 = load ptr, ptr %2, align 8, !tbaa !14
  %16 = getelementptr inbounds nuw %struct.pmix_iof_write_event_t, ptr %15, i32 0, i32 4
  %17 = load ptr, ptr %16, align 8, !tbaa !291
  call void @free(ptr noundef %17) #13
  %18 = load ptr, ptr %2, align 8, !tbaa !14
  %19 = getelementptr inbounds nuw %struct.pmix_iof_write_event_t, ptr %18, i32 0, i32 6
  %20 = load i32, ptr %19, align 8, !tbaa !238
  %21 = icmp slt i32 2, %20
  br i1 %21, label %22, label %46

22:                                               ; preds = %14
  %23 = load i32, ptr getelementptr inbounds nuw (%struct.pmix_client_globals_t, ptr @pmix_client_globals, i32 0, i32 17), align 8, !tbaa !28
  %24 = icmp sge i32 %23, 0
  br i1 %24, label %25, label %41

25:                                               ; preds = %22
  %26 = load i32, ptr getelementptr inbounds nuw (%struct.pmix_client_globals_t, ptr @pmix_client_globals, i32 0, i32 17), align 8, !tbaa !28
  %27 = icmp slt i32 %26, 64
  br i1 %27, label %28, label %41

28:                                               ; preds = %25
  %29 = load i32, ptr getelementptr inbounds nuw (%struct.pmix_client_globals_t, ptr @pmix_client_globals, i32 0, i32 17), align 8, !tbaa !28
  %30 = sext i32 %29 to i64
  %31 = getelementptr inbounds [0 x %struct.pmix_output_desc_t], ptr @pmix_output_info, i64 0, i64 %30
  %32 = getelementptr inbounds nuw %struct.pmix_output_desc_t, ptr %31, i32 0, i32 2
  %33 = load i32, ptr %32, align 4, !tbaa !41
  %34 = icmp sge i32 %33, 20
  br i1 %34, label %35, label %41

35:                                               ; preds = %28
  %36 = load i32, ptr getelementptr inbounds nuw (%struct.pmix_client_globals_t, ptr @pmix_client_globals, i32 0, i32 17), align 8, !tbaa !28
  %37 = call ptr @pmix_util_print_name_args(ptr noundef getelementptr inbounds nuw (%struct.pmix_globals_t, ptr @pmix_globals, i32 0, i32 1))
  %38 = load ptr, ptr %2, align 8, !tbaa !14
  %39 = getelementptr inbounds nuw %struct.pmix_iof_write_event_t, ptr %38, i32 0, i32 6
  %40 = load i32, ptr %39, align 8, !tbaa !238
  call void (i32, ptr, ...) @pmix_output(i32 noundef %36, ptr noundef @.str.84, ptr noundef %37, i32 noundef %40)
  br label %41

41:                                               ; preds = %35, %28, %25, %22
  %42 = load ptr, ptr %2, align 8, !tbaa !14
  %43 = getelementptr inbounds nuw %struct.pmix_iof_write_event_t, ptr %42, i32 0, i32 6
  %44 = load i32, ptr %43, align 8, !tbaa !238
  %45 = call i32 @close(i32 noundef %44)
  br label %46

46:                                               ; preds = %41, %14
  br label %47

47:                                               ; preds = %46
  call void @llvm.lifetime.start.p0(i64 8, ptr %3) #13
  br label %48

48:                                               ; preds = %75, %47
  %49 = load ptr, ptr %2, align 8, !tbaa !14
  %50 = getelementptr inbounds nuw %struct.pmix_iof_write_event_t, ptr %49, i32 0, i32 7
  %51 = call ptr @pmix_list_remove_first(ptr noundef %50)
  store ptr %51, ptr %3, align 8, !tbaa !294
  %52 = icmp ne ptr null, %51
  br i1 %52, label %53, label %76

53:                                               ; preds = %48
  br label %54

54:                                               ; preds = %53
  call void @llvm.lifetime.start.p0(i64 8, ptr %4) #13
  %55 = load ptr, ptr %3, align 8, !tbaa !294
  store ptr %55, ptr %4, align 8, !tbaa !84
  %56 = load ptr, ptr %4, align 8, !tbaa !84
  %57 = call i32 @pmix_obj_update(ptr noundef %56, i32 noundef -1)
  %58 = icmp eq i32 0, %57
  br i1 %58, label %59, label %73

59:                                               ; preds = %54
  %60 = load ptr, ptr %4, align 8, !tbaa !84
  call void @pmix_obj_run_destructors(ptr noundef %60)
  %61 = load ptr, ptr %4, align 8, !tbaa !84
  %62 = getelementptr inbounds nuw %struct.pmix_object_t, ptr %61, i32 0, i32 3
  %63 = getelementptr inbounds nuw %struct.pmix_tma, ptr %62, i32 0, i32 5
  %64 = load ptr, ptr %63, align 8, !tbaa !86
  %65 = icmp ne ptr null, %64
  br i1 %65, label %66, label %70

66:                                               ; preds = %59
  %67 = load ptr, ptr %4, align 8, !tbaa !84
  %68 = getelementptr inbounds nuw %struct.pmix_object_t, ptr %67, i32 0, i32 3
  %69 = load ptr, ptr %3, align 8, !tbaa !294
  call void @pmix_tma_free(ptr noundef %68, ptr noundef %69)
  br label %72

70:                                               ; preds = %59
  %71 = load ptr, ptr %3, align 8, !tbaa !294
  call void @free(ptr noundef %71) #13
  br label %72

72:                                               ; preds = %70, %66
  store ptr null, ptr %3, align 8, !tbaa !294
  br label %73

73:                                               ; preds = %72, %54
  call void @llvm.lifetime.end.p0(i64 8, ptr %4) #13
  br label %74

74:                                               ; preds = %73
  br label %75

75:                                               ; preds = %74
  br label %48, !llvm.loop !310

76:                                               ; preds = %48
  br label %77

77:                                               ; preds = %76
  %78 = load ptr, ptr %2, align 8, !tbaa !14
  %79 = getelementptr inbounds nuw %struct.pmix_iof_write_event_t, ptr %78, i32 0, i32 7
  call void @pmix_obj_run_destructors(ptr noundef %79)
  br label %80

80:                                               ; preds = %77
  br label %81

81:                                               ; preds = %80
  call void @llvm.lifetime.end.p0(i64 8, ptr %3) #13
  br label %82

82:                                               ; preds = %81
  ret void
}