; Function Attrs: nounwind uwtable
define internal void @iof_write_event_destruct(ptr noundef %0) #0 {
  %2 = getelementptr inbounds nuw i8, ptr %0, i64 144
  %3 = load i8, ptr %2, align 8, !tbaa !265, !range !19, !noundef !20
  %4 = trunc nuw i8 %3 to i1
  br i1 %4, label %5, label %9

5:                                                ; preds = %1
  %6 = getelementptr inbounds nuw i8, ptr %0, i64 152
  %7 = load ptr, ptr %6, align 8, !tbaa !267
  %8 = tail call i32 @event_del(ptr noundef %7) #18
  br label %9

9:                                                ; preds = %5, %1
  %10 = getelementptr inbounds nuw i8, ptr %0, i64 152
  %11 = load ptr, ptr %10, align 8, !tbaa !267
  tail call void @free(ptr noundef %11) #18
  %12 = getelementptr inbounds nuw i8, ptr %0, i64 176
  %13 = load i32, ptr %12, align 8, !tbaa !211
  %14 = icmp sgt i32 %13, 2
  br i1 %14, label %15, label %28

15:                                               ; preds = %9
  %16 = load i32, ptr getelementptr inbounds nuw (i8, ptr @pmix_client_globals, i64 768), align 8, !tbaa !23
  %or.cond = icmp ult i32 %16, 64
  br i1 %or.cond, label %17, label %25

17:                                               ; preds = %15
  %18 = zext nneg i32 %16 to i64
  %19 = getelementptr inbounds nuw [0 x %struct.pmix_output_desc_t], ptr @pmix_output_info, i64 0, i64 %18, i32 2
  %20 = load i32, ptr %19, align 4, !tbaa !36
  %21 = icmp sgt i32 %20, 19
  br i1 %21, label %22, label %25

22:                                               ; preds = %17
  %23 = tail call ptr @pmix_util_print_name_args(ptr noundef nonnull getelementptr inbounds nuw (i8, ptr @pmix_globals, i64 4)) #18
  %24 = load i32, ptr %12, align 8, !tbaa !211
  tail call void (i32, ptr, ...) @pmix_output(i32 noundef %16, ptr noundef nonnull @.str.84, ptr noundef %23, i32 noundef %24) #18
  %.pre = load i32, ptr %12, align 8, !tbaa !211
  br label %25

25:                                               ; preds = %22, %17, %15
  %26 = phi i32 [ %.pre, %22 ], [ %13, %17 ], [ %13, %15 ]
  %27 = tail call i32 @close(i32 noundef %26) #18
  br label %28

28:                                               ; preds = %9, %25
  %29 = getelementptr inbounds nuw i8, ptr %0, i64 448
  %30 = load volatile i64, ptr %29, align 8, !tbaa !217
  %31 = icmp eq i64 %30, 0
  br i1 %31, label %._crit_edge, label %.lr.ph

.lr.ph:                                           ; preds = %28
  %32 = getelementptr inbounds nuw i8, ptr %0, i64 424
  br label %33

33:                                               ; preds = %.lr.ph, %66
  %34 = load volatile i64, ptr %29, align 8, !tbaa !217
  %35 = add i64 %34, -1
  store volatile i64 %35, ptr %29, align 8, !tbaa !217
  %36 = load ptr, ptr %32, align 8, !tbaa !249
  %37 = getelementptr inbounds nuw i8, ptr %36, i64 128
  %38 = load volatile ptr, ptr %37, align 8, !tbaa !216
  %39 = getelementptr inbounds nuw i8, ptr %36, i64 120
  %40 = load volatile ptr, ptr %39, align 8, !tbaa !115
  %41 = getelementptr inbounds nuw i8, ptr %40, i64 128
  store volatile ptr %38, ptr %41, align 8, !tbaa !216
  %42 = load volatile ptr, ptr %39, align 8, !tbaa !115
  store ptr %42, ptr %32, align 8, !tbaa !249
  %43 = tail call i32 @pthread_mutex_lock(ptr noundef nonnull %36) #18
  %44 = icmp eq i32 %43, 35
  br i1 %44, label %45, label %pmix_obj_update.exit

45:                                               ; preds = %33
  %46 = tail call ptr @__errno_location() #20
  store i32 35, ptr %46, align 4, !tbaa !63
  tail call void @perror(ptr noundef nonnull @.str.41) #21
  tail call void @abort() #22
  unreachable

pmix_obj_update.exit:                             ; preds = %33
  %47 = getelementptr inbounds nuw i8, ptr %36, i64 48
  %48 = load i32, ptr %47, align 8, !tbaa !66
  %49 = add nsw i32 %48, -1
  store i32 %49, ptr %47, align 8, !tbaa !66
  %50 = tail call i32 @pthread_mutex_unlock(ptr noundef nonnull %36) #18
  %51 = icmp eq i32 %49, 0
  br i1 %51, label %52, label %66

52:                                               ; preds = %pmix_obj_update.exit
  %53 = getelementptr inbounds nuw i8, ptr %36, i64 40
  %54 = load ptr, ptr %53, align 8, !tbaa !65
  %55 = getelementptr inbounds nuw i8, ptr %54, i64 48
  %56 = load ptr, ptr %55, align 8, !tbaa !88
  %57 = load ptr, ptr %56, align 8, !tbaa !68
  %.not6.i = icmp eq ptr %57, null
  br i1 %.not6.i, label %pmix_obj_run_destructors.exit, label %.lr.ph.i

.lr.ph.i:                                         ; preds = %52, %.lr.ph.i
  %58 = phi ptr [ %60, %.lr.ph.i ], [ %57, %52 ]
  %.07.i = phi ptr [ %59, %.lr.ph.i ], [ %56, %52 ]
  tail call void %58(ptr noundef nonnull %36) #18
  %59 = getelementptr inbounds nuw i8, ptr %.07.i, i64 8
  %60 = load ptr, ptr %59, align 8, !tbaa !68
  %.not.i = icmp eq ptr %60, null
  br i1 %.not.i, label %pmix_obj_run_destructors.exit, label %.lr.ph.i, !llvm.loop !89

pmix_obj_run_destructors.exit:                    ; preds = %.lr.ph.i, %52
  %61 = getelementptr inbounds nuw i8, ptr %36, i64 96
  %62 = load ptr, ptr %61, align 8, !tbaa !90
  %.not17 = icmp eq ptr %62, null
  br i1 %.not17, label %65, label %63

63:                                               ; preds = %pmix_obj_run_destructors.exit
  %64 = getelementptr inbounds nuw i8, ptr %36, i64 56
  tail call void %62(ptr noundef nonnull %64, ptr noundef nonnull %36) #18
  br label %66

65:                                               ; preds = %pmix_obj_run_destructors.exit
  tail call void @free(ptr noundef nonnull %36) #18
  br label %66

66:                                               ; preds = %63, %65, %pmix_obj_update.exit
  %67 = load volatile i64, ptr %29, align 8, !tbaa !217
  %68 = icmp eq i64 %67, 0
  br i1 %68, label %._crit_edge, label %33, !llvm.loop !276

._crit_edge:                                      ; preds = %66, %28
  %69 = getelementptr inbounds nuw i8, ptr %0, i64 184
  %70 = getelementptr inbounds nuw i8, ptr %0, i64 224
  %71 = load ptr, ptr %70, align 8, !tbaa !65
  %72 = getelementptr inbounds nuw i8, ptr %71, i64 48
  %73 = load ptr, ptr %72, align 8, !tbaa !88
  %74 = load ptr, ptr %73, align 8, !tbaa !68
  %.not6.i19 = icmp eq ptr %74, null
  br i1 %.not6.i19, label %pmix_obj_run_destructors.exit23, label %.lr.ph.i20

.lr.ph.i20:                                       ; preds = %._crit_edge, %.lr.ph.i20
  %75 = phi ptr [ %77, %.lr.ph.i20 ], [ %74, %._crit_edge ]
  %.07.i21 = phi ptr [ %76, %.lr.ph.i20 ], [ %73, %._crit_edge ]
  tail call void %75(ptr noundef nonnull %69) #18
  %76 = getelementptr inbounds nuw i8, ptr %.07.i21, i64 8
  %77 = load ptr, ptr %76, align 8, !tbaa !68
  %.not.i22 = icmp eq ptr %77, null
  br i1 %.not.i22, label %pmix_obj_run_destructors.exit23, label %.lr.ph.i20, !llvm.loop !89

pmix_obj_run_destructors.exit23:                  ; preds = %.lr.ph.i20, %._crit_edge
  ret void
}